; ModuleID = '36/781.c'
source_filename = "36/781.c"
target datalayout = "e-m:e-p270:32:32-p271:32:32-p272:64:64-i64:64-f80:128-n8:16:32:64-S128"
target triple = "x86_64-pc-linux-gnu"

@.str = private unnamed_addr constant [5 x i8] c"%s%s\00", align 1
@.str.1 = private unnamed_addr constant [3 x i8] c"NO\00", align 1
@.str.2 = private unnamed_addr constant [4 x i8] c"YES\00", align 1

; Function Attrs: noinline nounwind uwtable
define dso_local i32 @main() #0 {
  %1 = alloca i32, align 4
  %2 = alloca [20 x i8], align 16
  %3 = alloca [20 x i8], align 16
  %4 = alloca i32, align 4
  %5 = alloca i32, align 4
  %6 = alloca i32, align 4
  %7 = alloca i32, align 4
  %8 = alloca [250 x i32], align 16
  %9 = alloca [250 x i32], align 16
  store i32 0, i32* %1, align 4
  store i32 1, i32* %6, align 4
  %10 = bitcast [250 x i32]* %8 to i8*
  call void @llvm.memset.p0i8.i64(i8* align 16 %10, i8 0, i64 1000, i1 false)
  %11 = bitcast [250 x i32]* %9 to i8*
  call void @llvm.memset.p0i8.i64(i8* align 16 %11, i8 0, i64 1000, i1 false)
  %12 = getelementptr inbounds [20 x i8], [20 x i8]* %2, i64 0, i64 0
  %13 = getelementptr inbounds [20 x i8], [20 x i8]* %3, i64 0, i64 0
  %14 = call i32 (i8*, ...) @__isoc99_scanf(i8* getelementptr inbounds ([5 x i8], [5 x i8]* @.str, i64 0, i64 0), i8* %12, i8* %13)
  %15 = getelementptr inbounds [20 x i8], [20 x i8]* %2, i64 0, i64 0
  %16 = call i64 @strlen(i8* %15) #4
  %17 = trunc i64 %16 to i32
  store i32 %17, i32* %5, align 4
  %18 = getelementptr inbounds [20 x i8], [20 x i8]* %3, i64 0, i64 0
  %19 = call i64 @strlen(i8* %18) #4
  %20 = trunc i64 %19 to i32
  store i32 %20, i32* %4, align 4
  %21 = load i32, i32* %5, align 4
  %22 = load i32, i32* %4, align 4
  %23 = icmp ne i32 %21, %22
  br i1 %23, label %24, label %25

24:                                               ; preds = %0
  store i32 0, i32* %6, align 4
  br label %25

25:                                               ; preds = %24, %0
  store i32 0, i32* %7, align 4
  br label %26

26:                                               ; preds = %39, %25
  %27 = load i32, i32* %7, align 4
  %28 = load i32, i32* %5, align 4
  %29 = icmp slt i32 %27, %28
  br i1 %29, label %30, label %42

30:                                               ; preds = %26
  %31 = load i32, i32* %7, align 4
  %32 = sext i32 %31 to i64
  %33 = getelementptr inbounds [20 x i8], [20 x i8]* %2, i64 0, i64 %32
  %34 = load i8, i8* %33, align 1
  %35 = sext i8 %34 to i64
  %36 = getelementptr inbounds [250 x i32], [250 x i32]* %8, i64 0, i64 %35
  %37 = load i32, i32* %36, align 4
  %38 = add nsw i32 %37, 1
  store i32 %38, i32* %36, align 4
  br label %39

39:                                               ; preds = %30
  %40 = load i32, i32* %7, align 4
  %41 = add nsw i32 %40, 1
  store i32 %41, i32* %7, align 4
  br label %26

42:                                               ; preds = %26
  store i32 0, i32* %7, align 4
  br label %43

43:                                               ; preds = %56, %42
  %44 = load i32, i32* %7, align 4
  %45 = load i32, i32* %4, align 4
  %46 = icmp slt i32 %44, %45
  br i1 %46, label %47, label %59

47:                                               ; preds = %43
  %48 = load i32, i32* %7, align 4
  %49 = sext i32 %48 to i64
  %50 = getelementptr inbounds [20 x i8], [20 x i8]* %3, i64 0, i64 %49
  %51 = load i8, i8* %50, align 1
  %52 = sext i8 %51 to i64
  %53 = getelementptr inbounds [250 x i32], [250 x i32]* %9, i64 0, i64 %52
  %54 = load i32, i32* %53, align 4
  %55 = add nsw i32 %54, 1
  store i32 %55, i32* %53, align 4
  br label %56

56:                                               ; preds = %47
  %57 = load i32, i32* %7, align 4
  %58 = add nsw i32 %57, 1
  store i32 %58, i32* %7, align 4
  br label %43

59:                                               ; preds = %43
  store i32 0, i32* %7, align 4
  br label %60

60:                                               ; preds = %75, %59
  %61 = load i32, i32* %7, align 4
  %62 = icmp slt i32 %61, 250
  br i1 %62, label %63, label %78

63:                                               ; preds = %60
  %64 = load i32, i32* %7, align 4
  %65 = sext i32 %64 to i64
  %66 = getelementptr inbounds [250 x i32], [250 x i32]* %8, i64 0, i64 %65
  %67 = load i32, i32* %66, align 4
  %68 = load i32, i32* %7, align 4
  %69 = sext i32 %68 to i64
  %70 = getelementptr inbounds [250 x i32], [250 x i32]* %9, i64 0, i64 %69
  %71 = load i32, i32* %70, align 4
  %72 = icmp ne i32 %67, %71
  br i1 %72, label %73, label %74

73:                                               ; preds = %63
  store i32 0, i32* %6, align 4
  br label %74

74:                                               ; preds = %73, %63
  br label %75

75:                                               ; preds = %74
  %76 = load i32, i32* %7, align 4
  %77 = add nsw i32 %76, 1
  store i32 %77, i32* %7, align 4
  br label %60

78:                                               ; preds = %60
  %79 = load i32, i32* %6, align 4
  %80 = icmp eq i32 %79, 0
  br i1 %80, label %81, label %83

81:                                               ; preds = %78
  %82 = call i32 (i8*, ...) @printf(i8* getelementptr inbounds ([3 x i8], [3 x i8]* @.str.1, i64 0, i64 0))
  br label %83

83:                                               ; preds = %81, %78
  %84 = load i32, i32* %6, align 4
  %85 = icmp eq i32 %84, 1
  br i1 %85, label %86, label %88

86:                                               ; preds = %83
  %87 = call i32 (i8*, ...) @printf(i8* getelementptr inbounds ([4 x i8], [4 x i8]* @.str.2, i64 0, i64 0))
  br label %88

88:                                               ; preds = %86, %83
  ret i32 0
}

; Function Attrs: argmemonly nounwind willreturn
declare void @llvm.memset.p0i8.i64(i8* nocapture writeonly, i8, i64, i1 immarg) #1

declare dso_local i32 @__isoc99_scanf(i8*, ...) #2

; Function Attrs: nounwind readonly
declare dso_local i64 @strlen(i8*) #3

declare dso_local i32 @printf(i8*, ...) #2


!llvm.module.flags = !{!0}
!llvm.ident = !{!1}

!0 = !{i32 1, !"wchar_size", i32 4}
!1 = !{!"clang version 10.0.0-4ubuntu1 "}
